; ModuleID = '19/170.c'
source_filename = "19/170.c"
target datalayout = "e-m:e-p270:32:32-p271:32:32-p272:64:64-i64:64-f80:128-n8:16:32:64-S128"
target triple = "x86_64-pc-linux-gnu"

@.str = private unnamed_addr constant [4 x i8] c"%s \00", align 1
@.str.1 = private unnamed_addr constant [3 x i8] c"%s\00", align 1

; Function Attrs: noinline nounwind uwtable
define dso_local i32 @main(i32 %0, i8** %1) #0 {
  %3 = alloca i32, align 4
  %4 = alloca i32, align 4
  %5 = alloca i8**, align 8
  %6 = alloca [101 x i8], align 16
  %7 = alloca [101 x i8], align 16
  %8 = alloca [101 x i8], align 16
  %9 = alloca [101 x i8], align 16
  %10 = alloca i32, align 4
  %11 = alloca i32, align 4
  store i32 0, i32* %3, align 4
  store i32 %0, i32* %4, align 4
  store i8** %1, i8*** %5, align 8
  %12 = getelementptr inbounds [101 x i8], [101 x i8]* %6, i64 0, i64 0
  %13 = call i32 (i8*, ...) bitcast (i32 (...)* @gets to i32 (i8*, ...)*)(i8* %12)
  %14 = getelementptr inbounds [101 x i8], [101 x i8]* %8, i64 0, i64 0
  %15 = call i32 (i8*, ...) bitcast (i32 (...)* @gets to i32 (i8*, ...)*)(i8* %14)
  %16 = getelementptr inbounds [101 x i8], [101 x i8]* %9, i64 0, i64 0
  %17 = call i32 (i8*, ...) bitcast (i32 (...)* @gets to i32 (i8*, ...)*)(i8* %16)
  store i32 0, i32* %11, align 4
  store i32 0, i32* %10, align 4
  br label %18

18:                                               ; preds = %66, %2
  %19 = load i32, i32* %10, align 4
  %20 = sext i32 %19 to i64
  %21 = getelementptr inbounds [101 x i8], [101 x i8]* %6, i64 0, i64 %20
  %22 = load i8, i8* %21, align 1
  %23 = sext i8 %22 to i32
  %24 = icmp ne i32 %23, 0
  br i1 %24, label %25, label %71

25:                                               ; preds = %18
  %26 = load i32, i32* %10, align 4
  %27 = sext i32 %26 to i64
  %28 = getelementptr inbounds [101 x i8], [101 x i8]* %6, i64 0, i64 %27
  %29 = load i8, i8* %28, align 1
  %30 = sext i8 %29 to i32
  %31 = icmp ne i32 %30, 32
  br i1 %31, label %32, label %40

32:                                               ; preds = %25
  %33 = load i32, i32* %10, align 4
  %34 = sext i32 %33 to i64
  %35 = getelementptr inbounds [101 x i8], [101 x i8]* %6, i64 0, i64 %34
  %36 = load i8, i8* %35, align 1
  %37 = load i32, i32* %11, align 4
  %38 = sext i32 %37 to i64
  %39 = getelementptr inbounds [101 x i8], [101 x i8]* %7, i64 0, i64 %38
  store i8 %36, i8* %39, align 1
  br label %40

40:                                               ; preds = %32, %25
  %41 = load i32, i32* %10, align 4
  %42 = sext i32 %41 to i64
  %43 = getelementptr inbounds [101 x i8], [101 x i8]* %6, i64 0, i64 %42
  %44 = load i8, i8* %43, align 1
  %45 = sext i8 %44 to i32
  %46 = icmp eq i32 %45, 32
  br i1 %46, label %47, label %65

47:                                               ; preds = %40
  %48 = load i32, i32* %11, align 4
  %49 = sext i32 %48 to i64
  %50 = getelementptr inbounds [101 x i8], [101 x i8]* %7, i64 0, i64 %49
  store i8 0, i8* %50, align 1
  %51 = getelementptr inbounds [101 x i8], [101 x i8]* %7, i64 0, i64 0
  %52 = getelementptr inbounds [101 x i8], [101 x i8]* %8, i64 0, i64 0
  %53 = call i32 @strcmp(i8* %51, i8* %52) #4
  %54 = icmp eq i32 %53, 0
  br i1 %54, label %55, label %61

55:                                               ; preds = %47
  %56 = getelementptr inbounds [101 x i8], [101 x i8]* %7, i64 0, i64 0
  %57 = getelementptr inbounds [101 x i8], [101 x i8]* %9, i64 0, i64 0
  %58 = call i8* @strcpy(i8* %56, i8* %57) #5
  %59 = getelementptr inbounds [101 x i8], [101 x i8]* %7, i64 0, i64 0
  %60 = call i32 (i8*, ...) @printf(i8* getelementptr inbounds ([4 x i8], [4 x i8]* @.str, i64 0, i64 0), i8* %59)
  br label %64

61:                                               ; preds = %47
  %62 = getelementptr inbounds [101 x i8], [101 x i8]* %7, i64 0, i64 0
  %63 = call i32 (i8*, ...) @printf(i8* getelementptr inbounds ([4 x i8], [4 x i8]* @.str, i64 0, i64 0), i8* %62)
  br label %64

64:                                               ; preds = %61, %55
  store i32 -1, i32* %11, align 4
  br label %65

65:                                               ; preds = %64, %40
  br label %66

66:                                               ; preds = %65
  %67 = load i32, i32* %10, align 4
  %68 = add nsw i32 %67, 1
  store i32 %68, i32* %10, align 4
  %69 = load i32, i32* %11, align 4
  %70 = add nsw i32 %69, 1
  store i32 %70, i32* %11, align 4
  br label %18

71:                                               ; preds = %18
  %72 = load i32, i32* %11, align 4
  %73 = sext i32 %72 to i64
  %74 = getelementptr inbounds [101 x i8], [101 x i8]* %7, i64 0, i64 %73
  store i8 0, i8* %74, align 1
  %75 = getelementptr inbounds [101 x i8], [101 x i8]* %7, i64 0, i64 0
  %76 = getelementptr inbounds [101 x i8], [101 x i8]* %8, i64 0, i64 0
  %77 = call i32 @strcmp(i8* %75, i8* %76) #4
  %78 = icmp eq i32 %77, 0
  br i1 %78, label %79, label %85

79:                                               ; preds = %71
  %80 = getelementptr inbounds [101 x i8], [101 x i8]* %7, i64 0, i64 0
  %81 = getelementptr inbounds [101 x i8], [101 x i8]* %9, i64 0, i64 0
  %82 = call i8* @strcpy(i8* %80, i8* %81) #5
  %83 = getelementptr inbounds [101 x i8], [101 x i8]* %7, i64 0, i64 0
  %84 = call i32 (i8*, ...) @printf(i8* getelementptr inbounds ([3 x i8], [3 x i8]* @.str.1, i64 0, i64 0), i8* %83)
  br label %88

85:                                               ; preds = %71
  %86 = getelementptr inbounds [101 x i8], [101 x i8]* %7, i64 0, i64 0
  %87 = call i32 (i8*, ...) @printf(i8* getelementptr inbounds ([3 x i8], [3 x i8]* @.str.1, i64 0, i64 0), i8* %86)
  br label %88

88:                                               ; preds = %85, %79
  ret i32 0
}

declare dso_local i32 @gets(...) #1

; Function Attrs: nounwind readonly
declare dso_local i32 @strcmp(i8*, i8*) #2

; Function Attrs: nounwind
declare dso_local i8* @strcpy(i8*, i8*) #3

declare dso_local i32 @printf(i8*, ...) #1


!llvm.module.flags = !{!0}
!llvm.ident = !{!1}

!0 = !{i32 1, !"wchar_size", i32 4}
!1 = !{!"clang version 10.0.0-4ubuntu1 "}
